target datalayout = "e-m:e-p270:32:32-p271:32:32-p272:64:64-i64:64-i128:128-f80:128-n8:16:32:64-S128"
target triple = "x86_64-pc-linux-gnu"

%"struct.memarena::arena_chunk" = type { ptr, i64, i64 }
%class.memarena = type { %"struct.memarena::arena_chunk", ptr, i32, i64, i64 }

; Function Attrs: mustprogress nounwind uwtable
define linkonce_odr void @_ZN8memarena11arena_chunkC2Ev(ptr noundef nonnull align 8 dereferenceable(24) %0) unnamed_addr #2 comdat align 2 {
  %2 = alloca ptr, align 8
  store ptr %0, ptr %2, align 8, !tbaa !24
  %3 = load ptr, ptr %2, align 8
  %4 = getelementptr inbounds nuw %"struct.memarena::arena_chunk", ptr %3, i32 0, i32 0
  store ptr null, ptr %4, align 8, !tbaa !25
  %5 = getelementptr inbounds nuw %"struct.memarena::arena_chunk", ptr %3, i32 0, i32 1
  store i64 0, ptr %5, align 8, !tbaa !26
  %6 = getelementptr inbounds nuw %"struct.memarena::arena_chunk", ptr %3, i32 0, i32 2
  store i64 0, ptr %6, align 8, !tbaa !27
  ret void
}

; Function Attrs: mustprogress uwtable
define void @_ZN8memarena6createEm(ptr noundef nonnull align 8 dereferenceable(56) %0, i64 noundef %1) #0 align 2 {
  %3 = alloca ptr, align 8
  %4 = alloca i64, align 8
  %5 = alloca %"struct.memarena::arena_chunk", align 8
  store ptr %0, ptr %3, align 8, !tbaa !4
  store i64 %1, ptr %4, align 8, !tbaa !9
  %6 = load ptr, ptr %3, align 8
  call void @llvm.lifetime.start.p0(i64 24, ptr %5) #6
  call void @_ZN8memarena11arena_chunkC2Ev(ptr noundef nonnull align 8 dereferenceable(24) %5)
  %7 = getelementptr inbounds nuw %class.memarena, ptr %6, i32 0, i32 0
  call void @llvm.memcpy.p0.p0.i64(ptr align 8 %7, ptr align 8 %5, i64 24, i1 false), !tbaa.struct !11
  call void @llvm.lifetime.end.p0(i64 24, ptr %5) #6
  %8 = getelementptr inbounds nuw %class.memarena, ptr %6, i32 0, i32 1
  store ptr null, ptr %8, align 8, !tbaa !14
  %9 = getelementptr inbounds nuw %class.memarena, ptr %6, i32 0, i32 3
  store i64 0, ptr %9, align 8, !tbaa !19
  %10 = getelementptr inbounds nuw %class.memarena, ptr %6, i32 0, i32 4
  store i64 0, ptr %10, align 8, !tbaa !20
  %11 = getelementptr inbounds nuw %class.memarena, ptr %6, i32 0, i32 2
  store i32 0, ptr %11, align 8, !tbaa !21
  %12 = load i64, ptr %4, align 8, !tbaa !9
  %13 = getelementptr inbounds nuw %class.memarena, ptr %6, i32 0, i32 0
  %14 = getelementptr inbounds nuw %"struct.memarena::arena_chunk", ptr %13, i32 0, i32 2
  store i64 %12, ptr %14, align 8, !tbaa !22
  %15 = getelementptr inbounds nuw %class.memarena, ptr %6, i32 0, i32 0
  %16 = getelementptr inbounds nuw %"struct.memarena::arena_chunk", ptr %15, i32 0, i32 2
  %17 = load i64, ptr %16, align 8, !tbaa !22
  %18 = icmp ugt i64 %17, 0
  br i1 %18, label %19, label %27

19:                                               ; preds = %2
  %20 = getelementptr inbounds nuw %class.memarena, ptr %6, i32 0, i32 0
  %21 = getelementptr inbounds nuw %"struct.memarena::arena_chunk", ptr %20, i32 0, i32 2
  %22 = load i64, ptr %21, align 8, !tbaa !22
  %23 = mul i64 %22, 1
  %24 = call noundef ptr @_Z12toku_xmallocm(i64 noundef %23)
  %25 = getelementptr inbounds nuw %class.memarena, ptr %6, i32 0, i32 0
  %26 = getelementptr inbounds nuw %"struct.memarena::arena_chunk", ptr %25, i32 0, i32 0
  store ptr %24, ptr %26, align 8, !tbaa !23
  br label %27

27:                                               ; preds = %19, %2
  ret void
}