; Function Attrs: mustprogress uwtable
define void @_ZN8memarena6createEm(ptr noundef nonnull writeonly align 8 captures(none) dereferenceable(56) initializes((0, 36), (40, 56)) %0, i64 noundef %1) local_unnamed_addr #0 align 2 {
  tail call void @llvm.memset.p0.i64(ptr noundef nonnull align 8 dereferenceable(16) %0, i8 0, i64 16, i1 false)
  %3 = getelementptr inbounds nuw i8, ptr %0, i64 24
  store ptr null, ptr %3, align 8, !tbaa !4
  %4 = getelementptr inbounds nuw i8, ptr %0, i64 40
  %5 = getelementptr inbounds nuw i8, ptr %0, i64 32
  store i32 0, ptr %5, align 8, !tbaa !14
  %6 = getelementptr inbounds nuw i8, ptr %0, i64 16
  tail call void @llvm.memset.p0.i64(ptr noundef nonnull align 8 dereferenceable(16) %4, i8 0, i64 16, i1 false)
  store i64 %1, ptr %6, align 8, !tbaa !15
  %.not = icmp eq i64 %1, 0
  br i1 %.not, label %9, label %7

7:                                                ; preds = %2
  %8 = tail call noundef ptr @_Z12toku_xmallocm(i64 noundef %1)
  store ptr %8, ptr %0, align 8, !tbaa !16
  br label %9

9:                                                ; preds = %7, %2
  ret void
}